target datalayout = "e-m:e-p270:32:32-p271:32:32-p272:64:64-i64:64-i128:128-f80:128-n8:16:32:64-S128"
target triple = "x86_64-pc-linux-gnu"

%struct.slurm_select_ops_t = type { ptr, ptr, ptr, ptr, ptr, ptr, ptr, ptr, ptr, ptr, ptr, ptr, ptr, ptr, ptr, ptr, ptr, ptr, ptr, ptr, ptr, ptr, ptr, ptr, ptr, ptr, ptr, ptr, ptr, ptr, ptr, ptr }
%struct.dynamic_plugin_data = type { ptr, i32 }

@ops = internal global ptr null, align 8

; Function Attrs: nounwind uwtable
define dso_local i32 @select_g_select_jobinfo_free(ptr noundef %0) #0 {
  %2 = alloca ptr, align 8
  %3 = alloca i32, align 4
  store ptr %0, ptr %2, align 8
  call void @llvm.lifetime.start.p0(i64 4, ptr %3) #7
  store i32 0, ptr %3, align 4
  %4 = load ptr, ptr %2, align 8
  %5 = icmp ne ptr %4, null
  br i1 %5, label %6, label %25

6:                                                ; preds = %1
  %7 = load ptr, ptr %2, align 8
  %8 = getelementptr inbounds nuw %struct.dynamic_plugin_data, ptr %7, i32 0, i32 0
  %9 = load ptr, ptr %8, align 8
  %10 = icmp ne ptr %9, null
  br i1 %10, label %11, label %24

11:                                               ; preds = %6
  %12 = load ptr, ptr @ops, align 8
  %13 = load ptr, ptr %2, align 8
  %14 = getelementptr inbounds nuw %struct.dynamic_plugin_data, ptr %13, i32 0, i32 1
  %15 = load i32, ptr %14, align 8
  %16 = zext i32 %15 to i64
  %17 = getelementptr inbounds nuw %struct.slurm_select_ops_t, ptr %12, i64 %16
  %18 = getelementptr inbounds nuw %struct.slurm_select_ops_t, ptr %17, i32 0, i32 24
  %19 = load ptr, ptr %18, align 8
  %20 = load ptr, ptr %2, align 8
  %21 = getelementptr inbounds nuw %struct.dynamic_plugin_data, ptr %20, i32 0, i32 0
  %22 = load ptr, ptr %21, align 8
  %23 = call i32 %19(ptr noundef %22)
  store i32 %23, ptr %3, align 4
  br label %24

24:                                               ; preds = %11, %6
  call void @slurm_xfree(ptr noundef %2)
  br label %25

25:                                               ; preds = %24, %1
  %26 = load i32, ptr %3, align 4
  call void @llvm.lifetime.end.p0(i64 4, ptr %3) #7
  ret i32 %26
}